target datalayout = "e-m:e-p270:32:32-p271:32:32-p272:64:64-i64:64-i128:128-f80:128-n8:16:32:64-S128"
target triple = "x86_64-pc-linux-gnu"

%struct.b3DynamicBvh = type { ptr, ptr, i32, i32, i32, [4 x i8], %class.b3AlignedObjectArray, %class.b3AlignedObjectArray.0 }
%class.b3AlignedObjectArray = type <{ [4 x i8], i32, i32, [4 x i8], ptr, i8, [7 x i8] }>
%class.b3AlignedObjectArray.0 = type <{ [4 x i8], i32, i32, [4 x i8], ptr, i8, [7 x i8] }>

; Function Attrs: mustprogress uwtable
define linkonce_odr dso_local void @_ZN18b3AlignedAllocatorIN12b3DynamicBvh6sStkNNELj16EE10deallocateEPS1_(ptr noundef nonnull align 1 dereferenceable(1) %0, ptr noundef %1) #0 comdat align 2 {
  %3 = alloca ptr, align 8
  %4 = alloca ptr, align 8
  store ptr %0, ptr %3, align 8, !tbaa !107
  store ptr %1, ptr %4, align 8, !tbaa !122
  %5 = load ptr, ptr %4, align 8, !tbaa !122
  call void @_Z21b3AlignedFreeInternalPv(ptr noundef %5)
  ret void
}

; Function Attrs: inlinehint mustprogress uwtable
define linkonce_odr dso_local void @_ZN20b3AlignedObjectArrayIN12b3DynamicBvh6sStkNNEE10deallocateEv(ptr noundef nonnull align 8 dereferenceable(25) %0) #4 comdat align 2 {
  %2 = alloca ptr, align 8
  store ptr %0, ptr %2, align 8, !tbaa !24
  %3 = load ptr, ptr %2, align 8
  %4 = getelementptr inbounds nuw %class.b3AlignedObjectArray, ptr %3, i32 0, i32 4
  %5 = load ptr, ptr %4, align 8, !tbaa !110
  %6 = icmp ne ptr %5, null
  br i1 %6, label %7, label %16

7:                                                ; preds = %1
  %8 = getelementptr inbounds nuw %class.b3AlignedObjectArray, ptr %3, i32 0, i32 5
  %9 = load i8, ptr %8, align 8, !tbaa !109, !range !116, !noundef !117
  %10 = trunc i8 %9 to i1
  br i1 %10, label %11, label %14

11:                                               ; preds = %7
  %12 = getelementptr inbounds nuw %class.b3AlignedObjectArray, ptr %3, i32 0, i32 4
  %13 = load ptr, ptr %12, align 8, !tbaa !110
  call void @_ZN18b3AlignedAllocatorIN12b3DynamicBvh6sStkNNELj16EE10deallocateEPS1_(ptr noundef nonnull align 1 dereferenceable(1) %3, ptr noundef %13)
  br label %14

14:                                               ; preds = %11, %7
  %15 = getelementptr inbounds nuw %class.b3AlignedObjectArray, ptr %3, i32 0, i32 4
  store ptr null, ptr %15, align 8, !tbaa !110
  br label %16

16:                                               ; preds = %14, %1
  ret void
}

; Function Attrs: inlinehint mustprogress nounwind uwtable
define linkonce_odr dso_local void @_ZN20b3AlignedObjectArrayIN12b3DynamicBvh6sStkNNEE7destroyEii(ptr noundef nonnull align 8 dereferenceable(25) %0, i32 noundef %1, i32 noundef %2) #6 comdat align 2 {
  %4 = alloca ptr, align 8
  %5 = alloca i32, align 4
  %6 = alloca i32, align 4
  %7 = alloca i32, align 4
  store ptr %0, ptr %4, align 8, !tbaa !24
  store i32 %1, ptr %5, align 4, !tbaa !32
  store i32 %2, ptr %6, align 4, !tbaa !32
  call void @llvm.lifetime.start.p0(i64 4, ptr %7) #12
  %8 = load i32, ptr %5, align 4, !tbaa !32
  store i32 %8, ptr %7, align 4, !tbaa !32
  br label %9

9:                                                ; preds = %14, %3
  %10 = load i32, ptr %7, align 4, !tbaa !32
  %11 = load i32, ptr %6, align 4, !tbaa !32
  %12 = icmp slt i32 %10, %11
  br i1 %12, label %13, label %17

13:                                               ; preds = %9
  br label %14

14:                                               ; preds = %13
  %15 = load i32, ptr %7, align 4, !tbaa !32
  %16 = add nsw i32 %15, 1
  store i32 %16, ptr %7, align 4, !tbaa !32
  br label %9, !llvm.loop !121

17:                                               ; preds = %9
  call void @llvm.lifetime.end.p0(i64 4, ptr %7) #12
  ret void
}

; Function Attrs: inlinehint mustprogress nounwind uwtable
define linkonce_odr dso_local noundef i32 @_ZNK20b3AlignedObjectArrayIN12b3DynamicBvh6sStkNNEE4sizeEv(ptr noundef nonnull align 8 dereferenceable(25) %0) #6 comdat align 2 {
  %2 = alloca ptr, align 8
  store ptr %0, ptr %2, align 8, !tbaa !24
  %3 = load ptr, ptr %2, align 8
  %4 = getelementptr inbounds nuw %class.b3AlignedObjectArray, ptr %3, i32 0, i32 1
  %5 = load i32, ptr %4, align 4, !tbaa !111
  ret i32 %5
}

; Function Attrs: noinline noreturn nounwind uwtable
define linkonce_odr hidden void @__clang_call_terminate(ptr noundef %0) #2 comdat {
  %2 = call ptr @__cxa_begin_catch(ptr %0) #12
  call void @_ZSt9terminatev() #14
  unreachable
}

; Function Attrs: inlinehint mustprogress uwtable
define linkonce_odr dso_local void @_ZN20b3AlignedObjectArrayIN12b3DynamicBvh6sStkNNEE5clearEv(ptr noundef nonnull align 8 dereferenceable(25) %0) #4 comdat align 2 {
  %2 = alloca ptr, align 8
  store ptr %0, ptr %2, align 8, !tbaa !24
  %3 = load ptr, ptr %2, align 8
  %4 = call noundef i32 @_ZNK20b3AlignedObjectArrayIN12b3DynamicBvh6sStkNNEE4sizeEv(ptr noundef nonnull align 8 dereferenceable(25) %3)
  call void @_ZN20b3AlignedObjectArrayIN12b3DynamicBvh6sStkNNEE7destroyEii(ptr noundef nonnull align 8 dereferenceable(25) %3, i32 noundef 0, i32 noundef %4)
  call void @_ZN20b3AlignedObjectArrayIN12b3DynamicBvh6sStkNNEE10deallocateEv(ptr noundef nonnull align 8 dereferenceable(25) %3)
  call void @_ZN20b3AlignedObjectArrayIN12b3DynamicBvh6sStkNNEE4initEv(ptr noundef nonnull align 8 dereferenceable(25) %3)
  ret void
}

; Function Attrs: inlinehint mustprogress nounwind uwtable
define linkonce_odr dso_local void @_ZN20b3AlignedObjectArrayIPK10b3DbvtNodeE4initEv(ptr noundef nonnull align 8 dereferenceable(25) %0) #6 comdat align 2 {
  %2 = alloca ptr, align 8
  store ptr %0, ptr %2, align 8, !tbaa !26
  %3 = load ptr, ptr %2, align 8
  %4 = getelementptr inbounds nuw %class.b3AlignedObjectArray.0, ptr %3, i32 0, i32 5
  store i8 1, ptr %4, align 8, !tbaa !75
  %5 = getelementptr inbounds nuw %class.b3AlignedObjectArray.0, ptr %3, i32 0, i32 4
  store ptr null, ptr %5, align 8, !tbaa !76
  %6 = getelementptr inbounds nuw %class.b3AlignedObjectArray.0, ptr %3, i32 0, i32 1
  store i32 0, ptr %6, align 4, !tbaa !74
  %7 = getelementptr inbounds nuw %class.b3AlignedObjectArray.0, ptr %3, i32 0, i32 2
  store i32 0, ptr %7, align 8, !tbaa !77
  ret void
}

; Function Attrs: mustprogress nounwind uwtable
define linkonce_odr dso_local void @_ZN18b3AlignedAllocatorIPK10b3DbvtNodeLj16EEC2Ev(ptr noundef nonnull align 1 dereferenceable(1) %0) unnamed_addr #1 comdat align 2 {
  %2 = alloca ptr, align 8
  store ptr %0, ptr %2, align 8, !tbaa !113
  ret void
}

; Function Attrs: inlinehint mustprogress nounwind uwtable
define linkonce_odr dso_local void @_ZN20b3AlignedObjectArrayIN12b3DynamicBvh6sStkNNEE4initEv(ptr noundef nonnull align 8 dereferenceable(25) %0) #6 comdat align 2 {
  %2 = alloca ptr, align 8
  store ptr %0, ptr %2, align 8, !tbaa !24
  %3 = load ptr, ptr %2, align 8
  %4 = getelementptr inbounds nuw %class.b3AlignedObjectArray, ptr %3, i32 0, i32 5
  store i8 1, ptr %4, align 8, !tbaa !109
  %5 = getelementptr inbounds nuw %class.b3AlignedObjectArray, ptr %3, i32 0, i32 4
  store ptr null, ptr %5, align 8, !tbaa !110
  %6 = getelementptr inbounds nuw %class.b3AlignedObjectArray, ptr %3, i32 0, i32 1
  store i32 0, ptr %6, align 4, !tbaa !111
  %7 = getelementptr inbounds nuw %class.b3AlignedObjectArray, ptr %3, i32 0, i32 2
  store i32 0, ptr %7, align 8, !tbaa !112
  ret void
}

; Function Attrs: mustprogress nounwind uwtable
define linkonce_odr dso_local void @_ZN18b3AlignedAllocatorIN12b3DynamicBvh6sStkNNELj16EEC2Ev(ptr noundef nonnull align 1 dereferenceable(1) %0) unnamed_addr #1 comdat align 2 {
  %2 = alloca ptr, align 8
  store ptr %0, ptr %2, align 8, !tbaa !107
  ret void
}

; Function Attrs: mustprogress nounwind uwtable
define linkonce_odr dso_local void @_ZN20b3AlignedObjectArrayIN12b3DynamicBvh6sStkNNEED2Ev(ptr noundef nonnull align 8 dereferenceable(25) %0) unnamed_addr #1 comdat align 2 personality ptr @__gxx_personality_v0 {
  %2 = alloca ptr, align 8
  store ptr %0, ptr %2, align 8, !tbaa !24
  %3 = load ptr, ptr %2, align 8
  invoke void @_ZN20b3AlignedObjectArrayIN12b3DynamicBvh6sStkNNEE5clearEv(ptr noundef nonnull align 8 dereferenceable(25) %3)
          to label %4 unwind label %5

4:                                                ; preds = %1
  ret void

5:                                                ; preds = %1
  %6 = landingpad { ptr, i32 }
          catch ptr null
  %7 = extractvalue { ptr, i32 } %6, 0
  call void @__clang_call_terminate(ptr %7) #14
  unreachable
}

; Function Attrs: mustprogress uwtable
define linkonce_odr dso_local void @_ZN20b3AlignedObjectArrayIPK10b3DbvtNodeEC2Ev(ptr noundef nonnull align 8 dereferenceable(25) %0) unnamed_addr #0 comdat align 2 {
  %2 = alloca ptr, align 8
  store ptr %0, ptr %2, align 8, !tbaa !26
  %3 = load ptr, ptr %2, align 8
  call void @_ZN18b3AlignedAllocatorIPK10b3DbvtNodeLj16EEC2Ev(ptr noundef nonnull align 1 dereferenceable(1) %3)
  call void @_ZN20b3AlignedObjectArrayIPK10b3DbvtNodeE4initEv(ptr noundef nonnull align 8 dereferenceable(25) %3)
  ret void
}

; Function Attrs: mustprogress uwtable
define linkonce_odr dso_local void @_ZN20b3AlignedObjectArrayIN12b3DynamicBvh6sStkNNEEC2Ev(ptr noundef nonnull align 8 dereferenceable(25) %0) unnamed_addr #0 comdat align 2 {
  %2 = alloca ptr, align 8
  store ptr %0, ptr %2, align 8, !tbaa !24
  %3 = load ptr, ptr %2, align 8
  call void @_ZN18b3AlignedAllocatorIN12b3DynamicBvh6sStkNNELj16EEC2Ev(ptr noundef nonnull align 1 dereferenceable(1) %3)
  call void @_ZN20b3AlignedObjectArrayIN12b3DynamicBvh6sStkNNEE4initEv(ptr noundef nonnull align 8 dereferenceable(25) %3)
  ret void
}

; Function Attrs: mustprogress uwtable
define dso_local void @_ZN12b3DynamicBvhC2Ev(ptr noundef nonnull align 8 dereferenceable(96) %0) unnamed_addr #0 align 2 personality ptr @__gxx_personality_v0 {
  %2 = alloca ptr, align 8
  %3 = alloca ptr, align 8
  %4 = alloca i32, align 4
  store ptr %0, ptr %2, align 8, !tbaa !4
  %5 = load ptr, ptr %2, align 8
  %6 = getelementptr inbounds nuw %struct.b3DynamicBvh, ptr %5, i32 0, i32 6
  call void @_ZN20b3AlignedObjectArrayIN12b3DynamicBvh6sStkNNEEC2Ev(ptr noundef nonnull align 8 dereferenceable(25) %6)
  %7 = getelementptr inbounds nuw %struct.b3DynamicBvh, ptr %5, i32 0, i32 7
  invoke void @_ZN20b3AlignedObjectArrayIPK10b3DbvtNodeEC2Ev(ptr noundef nonnull align 8 dereferenceable(25) %7)
          to label %8 unwind label %14

8:                                                ; preds = %1
  %9 = getelementptr inbounds nuw %struct.b3DynamicBvh, ptr %5, i32 0, i32 0
  store ptr null, ptr %9, align 8, !tbaa !9
  %10 = getelementptr inbounds nuw %struct.b3DynamicBvh, ptr %5, i32 0, i32 1
  store ptr null, ptr %10, align 8, !tbaa !20
  %11 = getelementptr inbounds nuw %struct.b3DynamicBvh, ptr %5, i32 0, i32 2
  store i32 -1, ptr %11, align 8, !tbaa !21
  %12 = getelementptr inbounds nuw %struct.b3DynamicBvh, ptr %5, i32 0, i32 3
  store i32 0, ptr %12, align 4, !tbaa !22
  %13 = getelementptr inbounds nuw %struct.b3DynamicBvh, ptr %5, i32 0, i32 4
  store i32 0, ptr %13, align 8, !tbaa !23
  ret void

14:                                               ; preds = %1
  %15 = landingpad { ptr, i32 }
          cleanup
  %16 = extractvalue { ptr, i32 } %15, 0
  store ptr %16, ptr %3, align 8
  %17 = extractvalue { ptr, i32 } %15, 1
  store i32 %17, ptr %4, align 4
  call void @_ZN20b3AlignedObjectArrayIN12b3DynamicBvh6sStkNNEED2Ev(ptr noundef nonnull align 8 dereferenceable(25) %6) #12
  br label %18

18:                                               ; preds = %14
  %19 = load ptr, ptr %3, align 8
  %20 = load i32, ptr %4, align 4
  %21 = insertvalue { ptr, i32 } poison, ptr %19, 0
  %22 = insertvalue { ptr, i32 } %21, i32 %20, 1
  resume { ptr, i32 } %22
}