; Function Attrs: mustprogress nofree norecurse nosync nounwind willreturn memory(argmem: write) uwtable
define dso_local void @_ZN12b3DynamicBvhC2Ev(ptr noundef nonnull writeonly align 8 captures(none) dereferenceable(96) initializes((0, 28), (36, 44), (48, 57), (68, 76), (80, 89)) %0) unnamed_addr #0 align 2 personality ptr @__gxx_personality_v0 {
  %2 = getelementptr inbounds nuw i8, ptr %0, i64 56
  store i8 1, ptr %2, align 8, !tbaa !4
  %3 = getelementptr inbounds nuw i8, ptr %0, i64 48
  store ptr null, ptr %3, align 8, !tbaa !13
  %4 = getelementptr inbounds nuw i8, ptr %0, i64 36
  store i32 0, ptr %4, align 4, !tbaa !14
  %5 = getelementptr inbounds nuw i8, ptr %0, i64 40
  store i32 0, ptr %5, align 8, !tbaa !15
  %6 = getelementptr inbounds nuw i8, ptr %0, i64 88
  store i8 1, ptr %6, align 8, !tbaa !16
  %7 = getelementptr inbounds nuw i8, ptr %0, i64 80
  store ptr null, ptr %7, align 8, !tbaa !20
  %8 = getelementptr inbounds nuw i8, ptr %0, i64 68
  store i32 0, ptr %8, align 4, !tbaa !21
  %9 = getelementptr inbounds nuw i8, ptr %0, i64 72
  store i32 0, ptr %9, align 8, !tbaa !22
  %10 = getelementptr inbounds nuw i8, ptr %0, i64 16
  tail call void @llvm.memset.p0.i64(ptr noundef nonnull align 8 dereferenceable(16) %0, i8 0, i64 16, i1 false)
  store i32 -1, ptr %10, align 8, !tbaa !23
  %11 = getelementptr inbounds nuw i8, ptr %0, i64 20
  store i32 0, ptr %11, align 4, !tbaa !26
  %12 = getelementptr inbounds nuw i8, ptr %0, i64 24
  store i32 0, ptr %12, align 8, !tbaa !27
  ret void
}